; Function Attrs: mustprogress nounwind uwtable
define hidden void @_ZN4cvc58internal6theory11quantifiers13LazyTrieMulti5clearEv(ptr noundef nonnull align 8 dereferenceable(104) %0) local_unnamed_addr #5 align 2 personality ptr @__gxx_personality_v0 {
  %2 = getelementptr inbounds nuw i8, ptr %0, i64 56
  %3 = getelementptr inbounds nuw i8, ptr %0, i64 72
  %4 = load ptr, ptr %3, align 8, !tbaa !21
  invoke void @_ZNSt8_Rb_treeIN4cvc58internal12NodeTemplateILb1EEESt4pairIKS3_NS1_6theory11quantifiers8LazyTrieEESt10_Select1stIS9_ESt4lessIS3_ESaIS9_EE8_M_eraseEPSt13_Rb_tree_nodeIS9_E(ptr noundef nonnull align 8 dereferenceable(48) %2, ptr noundef %4)
          to label %_ZN4cvc58internal6theory11quantifiers8LazyTrie5clearEv.exit unwind label %5

5:                                                ; preds = %1
  %6 = landingpad { ptr, i32 }
          catch ptr null
  %7 = extractvalue { ptr, i32 } %6, 0
  tail call void @__clang_call_terminate(ptr %7) #22
  unreachable

_ZN4cvc58internal6theory11quantifiers8LazyTrie5clearEv.exit: ; preds = %1
  %8 = getelementptr inbounds nuw i8, ptr %0, i64 64
  store ptr null, ptr %3, align 8, !tbaa !21
  %9 = getelementptr inbounds nuw i8, ptr %0, i64 80
  store ptr %8, ptr %9, align 8, !tbaa !36
  %10 = getelementptr inbounds nuw i8, ptr %0, i64 88
  store ptr %8, ptr %10, align 8, !tbaa !61
  %11 = getelementptr inbounds nuw i8, ptr %0, i64 96
  store i64 0, ptr %11, align 8, !tbaa !13
  %12 = getelementptr inbounds nuw i8, ptr %0, i64 16
  %13 = load ptr, ptr %12, align 8, !tbaa !21
  invoke void @_ZNSt8_Rb_treeIN4cvc58internal12NodeTemplateILb1EEESt4pairIKS3_St6vectorIS3_SaIS3_EEESt10_Select1stIS9_ESt4lessIS3_ESaIS9_EE8_M_eraseEPSt13_Rb_tree_nodeIS9_E(ptr noundef nonnull align 8 dereferenceable(48) %0, ptr noundef %13)
          to label %_ZNSt3mapIN4cvc58internal12NodeTemplateILb1EEESt6vectorIS3_SaIS3_EESt4lessIS3_ESaISt4pairIKS3_S6_EEE5clearEv.exit unwind label %14

14:                                               ; preds = %_ZN4cvc58internal6theory11quantifiers8LazyTrie5clearEv.exit
  %15 = landingpad { ptr, i32 }
          catch ptr null
  %16 = extractvalue { ptr, i32 } %15, 0
  tail call void @__clang_call_terminate(ptr %16) #22
  unreachable

_ZNSt3mapIN4cvc58internal12NodeTemplateILb1EEESt6vectorIS3_SaIS3_EESt4lessIS3_ESaISt4pairIKS3_S6_EEE5clearEv.exit: ; preds = %_ZN4cvc58internal6theory11quantifiers8LazyTrie5clearEv.exit
  %17 = getelementptr inbounds nuw i8, ptr %0, i64 8
  store ptr null, ptr %12, align 8, !tbaa !21
  %18 = getelementptr inbounds nuw i8, ptr %0, i64 24
  store ptr %17, ptr %18, align 8, !tbaa !36
  %19 = getelementptr inbounds nuw i8, ptr %0, i64 32
  store ptr %17, ptr %19, align 8, !tbaa !61
  %20 = getelementptr inbounds nuw i8, ptr %0, i64 40
  store i64 0, ptr %20, align 8, !tbaa !13
  ret void
}